; Function Attrs: mustprogress uwtable
define void @_ZNK19OpenColorIO_v2_5dev9FileRules18createEditableCopyEv(ptr dead_on_unwind noalias writable sret(%"class.std::shared_ptr") align 8 %0, ptr noundef nonnull readonly align 8 captures(none) dereferenceable(16) %1) local_unnamed_addr #0 align 2 personality ptr @__gxx_personality_v0 {
  tail call void @_ZN19OpenColorIO_v2_5dev9FileRules6CreateEv(ptr dead_on_unwind writable sret(%"class.std::shared_ptr") align 8 %0)
  %3 = getelementptr inbounds nuw i8, ptr %1, i64 8
  %4 = load ptr, ptr %3, align 8, !tbaa !6
  %5 = load ptr, ptr %0, align 8, !tbaa !28
  %6 = getelementptr inbounds nuw i8, ptr %5, i64 8
  %7 = load ptr, ptr %6, align 8, !tbaa !6
  %8 = invoke noundef nonnull align 8 dereferenceable(24) ptr @_ZN19OpenColorIO_v2_5dev9FileRules4ImplaSERKS1_(ptr noundef nonnull align 8 dereferenceable(24) %7, ptr noundef nonnull align 8 dereferenceable(24) %4)
          to label %11 unwind label %9

9:                                                ; preds = %2
  %10 = landingpad { ptr, i32 }
          cleanup
  tail call void @_ZNSt12__shared_ptrIN19OpenColorIO_v2_5dev9FileRulesELN9__gnu_cxx12_Lock_policyE2EED2Ev(ptr noundef nonnull align 8 dereferenceable(16) %0) #31
  resume { ptr, i32 } %10

11:                                               ; preds = %2
  ret void
}